******************************************************************************
            TI ARM Clang Linker PC v4.0.4                      
******************************************************************************
>> Linked Sun Jul 19 15:34:42 2026

OUTPUT FILE NAME:   <mpu6050-oled-hardware-i2c.out>
ENTRY POINT SYMBOL: "_c_int00_noargs"  address: 00005f91


MEMORY CONFIGURATION

         name            origin    length      used     unused   attr    fill
----------------------  --------  ---------  --------  --------  ----  --------
  FLASH                 00000000   00020000  000077b8  00018848  R  X
  SRAM                  20200000   00008000  000004b1  00007b4f  RW X
  BCR_CONFIG            41c00000   000000ff  00000000  000000ff  R   
  BSL_CONFIG            41c00100   00000080  00000000  00000080  R   


SEGMENT ALLOCATION MAP

run origin  load origin   length   init length attrs members
----------  ----------- ---------- ----------- ----- -------
00000000    00000000    000077b8   000077b8    r-x
  00000000    00000000    000000c0   000000c0    r-- .intvecs
  000000c0    000000c0    00006ae0   00006ae0    r-x .text
  00006ba0    00006ba0    00000be0   00000be0    r-- .rodata
  00007780    00007780    00000038   00000038    r-- .cinit
20200000    20200000    000002b5   00000000    rw-
  20200000    20200000    000001bc   00000000    rw- .bss
  202001c0    202001c0    000000f5   00000000    rw- .data
20207e00    20207e00    00000200   00000000    rw-
  20207e00    20207e00    00000200   00000000    rw- .stack


SECTION ALLOCATION MAP

 output                                  attributes/
section   page    origin      length       input sections
--------  ----  ----------  ----------   ----------------
.intvecs   0    00000000    000000c0     
                  00000000    000000c0     startup_mspm0g350x_ticlang.o (.intvecs)

.text      0    000000c0    00006ae0     
                  000000c0    000009d0     libc.a : _printfi.c.obj (.text:__TI_printfi)
                  00000a90    000005a0     imu_ahrs.o (.text.IMU_AHRS_Update_Attitude)
                  00001030    000004e8     main.o (.text.main)
                  00001518    0000022c     turn.o (.text.Turn_Poll)
                  00001744    00000220     libc.a : _printfi.c.obj (.text._pconv_a)
                  00001964    000001e0     imu_ahrs.o (.text.IMU_AHRS_Yaw_Calib_Poll)
                  00001b44    000001dc     libc.a : _printfi.c.obj (.text._pconv_g)
                  00001d20    000001d8     ti_msp_dl_config.o (.text.SYSCFG_DL_GPIO_init)
                  00001ef8    000001c8     libc.a : s_atanf.c.obj (.text.atanf)
                  000020c0    000001ac     encoder.o (.text.IRDM_update_wheel_speed)
                  0000226c    00000192     libclang_rt.builtins.a : adddf3.S.obj (.text.adddf3_subdf3)
                  000023fe    00000002                            : aeabi_div0.c.obj (.text.__aeabi_idiv0)
                  00002400    00000168     imu_ahrs.o (.text.IMU_AHRS_Update_Data)
                  00002568    00000164     imu_ahrs.o (.text.IMU_AHRS_Init_Poll)
                  000026cc    00000164     follow.o (.text.IRDM_read_sensors)
                  00002830    0000013c     libc.a : _printfi.c.obj (.text.fcvt)
                  0000296c    00000134     mspm0_i2c.o (.text.mspm0_i2c_read)
                  00002aa0    0000012c     follow.o (.text.IRDM_UpdatePositionPID)
                  00002bcc    00000120     libc.a : _printfi.c.obj (.text._pconv_e)
                  00002cec    00000118     oled_hardware_i2c.o (.text.OLED_ShowChar)
                  00002e04    00000118     libc.a : e_atan2f.c.obj (.text.atan2f)
                  00002f1c    00000110     oled_hardware_i2c.o (.text.OLED_Init)
                  0000302c    0000010c     libclang_rt.builtins.a : divdf3.S.obj (.text.__divdf3)
                  00003138    00000104     driverlib.a : dl_timer.o (.text.DL_Timer_initFourCCPWMMode)
                  0000323c    000000fc                 : dl_timer.o (.text.DL_Timer_initTimerMode)
                  00003338    000000fc     bsp_motor_hallencoder.o (.text.GROUP1_IRQHandler)
                  00003434    000000ec     ti_msp_dl_config.o (.text.SYSCFG_DL_SYSCTL_SYSPLL_init)
                  00003520    000000e4     libclang_rt.builtins.a : muldf3.S.obj (.text.__muldf3)
                  00003604    000000dc     driverlib.a : dl_sysctl_mspm0g1x0x_g3x0x.o (.text.DL_SYSCTL_configSYSPLL)
                  000036e0    000000d8     libc.a : s_scalbn.c.obj (.text.scalbn)
                  000037b8    000000d8     libclang_rt.builtins.a : addsf3.S.obj (.text)
                  00003890    000000d4     turn.o (.text.TurnToAngle_Start)
                  00003964    000000cc     turn.o (.text.GoStraight_Poll)
                  00003a30    000000c4     speed_pid.o (.text.SpeedPID_Update)
                  00003af4    000000c4     imu_ahrs.o (.text.imu_ahrs_calibrate_gyro_offset_step)
                  00003bb8    000000c4     mspm0_i2c.o (.text.mspm0_i2c_write)
                  00003c7c    000000b0     angle_pid.o (.text.AnglePD_Update)
                  00003d2c    000000a2     libclang_rt.builtins.a : udivmoddi4.S.obj (.text)
                  00003dce    00000002                            : aeabi_div0.c.obj (.text.__aeabi_ldiv0)
                  00003dd0    000000a0     turn.o (.text.GoStraight_Start)
                  00003e70    000000a0     imu_ahrs.o (.text.IMU_AHRS_Init_Start)
                  00003f10    00000098     control_mixer.o (.text.Mixer_Apply)
                  00003fa8    00000098     oled_hardware_i2c.o (.text.OLED_WR_Byte)
                  00004040    00000094     follow.o (.text.IRDM_calculate_bias)
                  000040d4    00000090     ti_msp_dl_config.o (.text.SYSCFG_DL_PWM_0_init)
                  00004164    00000090     speed_pid.o (.text.SpeedPID_Init)
                  000041f4    0000008c     ti_msp_dl_config.o (.text.SYSCFG_DL_initPower)
                  00004280    0000008c     libclang_rt.builtins.a : mulsf3.S.obj (.text.__mulsf3)
                  0000430c    00000084     clock.o (.text.__NVIC_SetPriority)
                  00004390    00000084     ti_msp_dl_config.o (.text.__NVIC_SetPriority)
                  00004414    00000082     libclang_rt.builtins.a : divsf3.S.obj (.text.__divsf3)
                  00004496    00000002     --HOLE-- [fill = 0]
                  00004498    00000080     bsp_tb6612.o (.text.AO_Control)
                  00004518    00000080     bsp_tb6612.o (.text.BO_Control)
                  00004598    00000080     ti_msp_dl_config.o (.text.SYSCFG_DL_SYSCTL_init)
                  00004618    0000007c     libc.a : copy_decompress_lzss.c.obj (.text:decompress:lzss)
                  00004694    00000074     libclang_rt.builtins.a : comparedf2.c.obj (.text.__gedf2)
                  00004708    00000008     imu_ahrs.o (.text.IMU_AHRS_GetData)
                  00004710    00000074     libclang_rt.builtins.a : truncdfsf2.S.obj (.text.__truncdfsf2)
                  00004784    00000070     oled_hardware_i2c.o (.text.OLED_ShowString)
                  000047f4    0000006a     oled_hardware_i2c.o (.text.OLED_Clear)
                  0000485e    00000002     --HOLE-- [fill = 0]
                  00004860    00000068     libclang_rt.builtins.a : comparedf2.c.obj (.text.__ledf2)
                  000048c8    00000066     libc.a : _printfi.c.obj (.text._mcpy)
                  0000492e    00000002     --HOLE-- [fill = 0]
                  00004930    00000064     angle_pid.o (.text.AnglePD_Init)
                  00004994    00000064     driverlib.a : dl_sysctl_mspm0g1x0x_g3x0x.o (.text.DL_SYSCTL_setHFCLKSourceHFXTParams)
                  000049f8    00000064     imu_ahrs.o (.text.IMU_AHRS_Get_Yaw_Compensated)
                  00004a5c    00000064     speed_control.o (.text.SpeedLoop_Update)
                  00004ac0    00000062     libclang_rt.builtins.a : aeabi_dcmp.S.obj (.text.__aeabi_dcmp)
                  00004b22    00000002     --HOLE-- [fill = 0]
                  00004b24    00000062                            : aeabi_fcmp.S.obj (.text.__aeabi_fcmp)
                  00004b86    00000002     --HOLE-- [fill = 0]
                  00004b88    00000060     mspm0_i2c.o (.text.mpu6050_i2c_sda_unlock)
                  00004be8    00000060     oled_hardware_i2c.o (.text.oled_i2c_sda_unlock)
                  00004c48    0000005e     driverlib.a : dl_i2c.o (.text.DL_I2C_fillControllerTXFIFO)
                  00004ca6    00000002     --HOLE-- [fill = 0]
                  00004ca8    0000005c     speed_control.o (.text.SpeedLoop_Init)
                  00004d04    0000005c     libc.a : s_frexp.c.obj (.text.frexp)
                  00004d60    0000005c     mspm0_i2c.o (.text.mspm0_i2c_enable)
                  00004dbc    0000005c     oled_hardware_i2c.o (.text.mspm0_i2c_enable)
                  00004e18    00000058     ti_msp_dl_config.o (.text.SYSCFG_DL_I2C_MPU6050_init)
                  00004e70    00000058     ti_msp_dl_config.o (.text.SYSCFG_DL_I2C_OLED_init)
                  00004ec8    00000058     libc.a : _ltoa.c.obj (.text.__TI_ltoa)
                  00004f20    00000058            : _printfi.c.obj (.text._pconv_f)
                  00004f78    00000056     libclang_rt.builtins.a : aeabi_idivmod.S.obj (.text.__aeabi_idivmod)
                  00004fce    00000002     --HOLE-- [fill = 0]
                  00004fd0    00000054     turn.o (.text.wrap_180)
                  00005024    00000052     libc.a : _printfi.c.obj (.text._ecpy)
                  00005076    00000002     --HOLE-- [fill = 0]
                  00005078    00000050     mspm0_i2c.o (.text.DL_GPIO_initPeripheralInputFunctionFeatures)
                  000050c8    00000050     oled_hardware_i2c.o (.text.DL_GPIO_initPeripheralInputFunctionFeatures)
                  00005118    00000050     ti_msp_dl_config.o (.text.DL_GPIO_initPeripheralInputFunctionFeatures)
                  00005168    00000050     mspm0_i2c.o (.text.DL_I2C_startControllerTransfer)
                  000051b8    00000050     oled_hardware_i2c.o (.text.DL_I2C_startControllerTransfer)
                  00005208    00000050     turn.o (.text.GoStraight_GetCorrection)
                  00005258    00000050     imu_ahrs.o (.text.IMU_AHRS_Yaw_Calib_Start)
                  000052a8    00000050     clock.o (.text.SysTick_Config)
                  000052f8    00000050     ti_msp_dl_config.o (.text.SysTick_Config)
                  00005348    00000050     imu_ahrs.o (.text.imu_ahrs_inv_sqrt)
                  00005398    0000004c     mspm0_i2c.o (.text.DL_GPIO_initDigitalInputFeatures)
                  000053e4    0000004c     oled_hardware_i2c.o (.text.DL_GPIO_initDigitalInputFeatures)
                  00005430    0000004c     ti_msp_dl_config.o (.text.DL_GPIO_initDigitalInputFeatures)
                  0000547c    0000004c     ti_msp_dl_config.o (.text.DL_UART_setBaudRateDivisor)
                  000054c8    0000004a     libclang_rt.builtins.a : fixdfsi.S.obj (.text.__fixdfsi)
                  00005512    00000002     --HOLE-- [fill = 0]
                  00005514    00000048     driverlib.a : dl_uart.o (.text.DL_UART_init)
                  0000555c    00000048     angle_pid.o (.text.clamp)
                  000055a4    00000048     speed_pid.o (.text.clamp)
                  000055ec    00000048     board.o (.text.lc_printf)
                  00005634    00000048     mspm0_i2c.o (.text.mspm0_i2c_disable)
                  0000567c    00000044     driverlib.a : dl_sysctl_mspm0g1x0x_g3x0x.o (.text.DL_SYSCTL_switchMCLKfromSYSOSCtoHSCLK)
                  000056c0    00000044     follow.o (.text.IRDM_IsBlackLine)
                  00005704    00000044     oled_hardware_i2c.o (.text.mspm0_i2c_disable)
                  00005748    00000042     turn.o (.text.TurnByAngle_Start)
                  0000578a    00000002     --HOLE-- [fill = 0]
                  0000578c    00000040     ti_msp_dl_config.o (.text.SYSCFG_DL_UART_0_init)
                  000057cc    00000040     libclang_rt.builtins.a : aeabi_uidivmod.S.obj (.text.__aeabi_uidivmod)
                  0000580c    00000040                            : extendsfdf2.S.obj (.text.__extendsfdf2)
                  0000584c    00000040     libc.a : atoi.c.obj (.text.atoi)
                  0000588c    00000040            : vsnprintf.c.obj (.text.vsnprintf)
                  000058cc    0000003c     driverlib.a : dl_i2c.o (.text.DL_I2C_flushControllerTXFIFO)
                  00005908    0000003c     ti_msp_dl_config.o (.text.DL_Timer_setCounterControl)
                  00005944    0000003c     oled_hardware_i2c.o (.text.OLED_Set_Pos)
                  00005980    0000003c     ti_msp_dl_config.o (.text.SYSCFG_DL_TIMER_0_init)
                  000059bc    0000003c     bsp_motor_hallencoder.o (.text.TIMG0_IRQHandler)
                  000059f8    0000003c     libclang_rt.builtins.a : floatsisf.S.obj (.text.__floatsisf)
                  00005a34    0000003c                            : comparesf2.S.obj (.text.__gtsf2)
                  00005a70    0000003c     board.o (.text.uart0_sendString)
                  00005aac    0000003c     libc.a : autoinit.c.obj (.text:__TI_auto_init_nobinit_nopinit)
                  00005ae8    0000003a     libclang_rt.builtins.a : comparesf2.S.obj (.text.__eqsf2)
                  00005b22    00000002     --HOLE-- [fill = 0]
                  00005b24    0000003a                            : muldsi3.S.obj (.text.__muldsi3)
                  00005b5e    00000002     --HOLE-- [fill = 0]
                  00005b60    00000038     ti_msp_dl_config.o (.text.DL_GPIO_initPeripheralOutputFunctionFeatures)
                  00005b98    00000038     ti_msp_dl_config.o (.text.SYSCFG_DL_init)
                  00005bd0    00000038     bsp_tb6612.o (.text.TB6612_Motor_Stop)
                  00005c08    00000038     libclang_rt.builtins.a : fixsfsi.S.obj (.text.__fixsfsi)
                  00005c40    00000038     libc.a : sprintf.c.obj (.text.sprintf)
                  00005c78    00000032     libclang_rt.builtins.a : fixunssfsi.S.obj (.text.__fixunssfsi)
                  00005caa    00000002     --HOLE-- [fill = 0]
                  00005cac    00000030     bsp_motor_hallencoder.o (.text.Motor_Init)
                  00005cdc    00000030     libc.a : _printfi.c.obj (.text._fcpy)
                  00005d0c    00000030            : vsnprintf.c.obj (.text._outs)
                  00005d3c    00000030     clock.o (.text.mspm0_delay_ms)
                  00005d6c    0000002c     bsp_motor_hallencoder.o (.text.Motor_Get_Encoder)
                  00005d98    0000002c     bsp_motor_hallencoder.o (.text.__NVIC_ClearPendingIRQ)
                  00005dc4    0000002c     bsp_motor_hallencoder.o (.text.__NVIC_EnableIRQ)
                  00005df0    0000002c     interrupt.o (.text.__NVIC_EnableIRQ)
                  00005e1c    0000002c     libclang_rt.builtins.a : floatsidf.S.obj (.text.__floatsidf)
                  00005e48    0000002c     clock.o (.text.mspm0_get_clock_ms)
                  00005e74    0000002c     board.o (.text.uart0_sendChar)
                  00005ea0    00000028     mspm0_i2c.o (.text.DL_Common_updateReg)
                  00005ec8    00000028     oled_hardware_i2c.o (.text.DL_Common_updateReg)
                  00005ef0    00000028     ti_msp_dl_config.o (.text.DL_Common_updateReg)
                  00005f18    00000028     ti_msp_dl_config.o (.text.DL_I2C_setControllerRXFIFOThreshold)
                  00005f40    00000028     ti_msp_dl_config.o (.text.DL_I2C_setControllerTXFIFOThreshold)
                  00005f68    00000028     libclang_rt.builtins.a : floatunsisf.S.obj (.text.__floatunsisf)
                  00005f90    00000028     libc.a : boot_cortex_m.c.obj (.text:_c_int00_noargs)
                  00005fb8    00000026     ti_msp_dl_config.o (.text.DL_I2C_setAnalogGlitchFilterPulseWidth)
                  00005fde    00000026     driverlib.a : dl_i2c.o (.text.DL_I2C_setClockConfig)
                  00006004    00000024     libclang_rt.builtins.a : floatunsidf.S.obj (.text.__floatunsidf)
                  00006028    00000024                            : muldi3.S.obj (.text.__muldi3)
                  0000604c    00000024     imu_ahrs.o (.text.imu_ahrs_read_multi)
                  00006070    00000022     libc.a : memccpy.c.obj (.text.memccpy)
                  00006092    00000002     --HOLE-- [fill = 0]
                  00006094    00000020     ti_msp_dl_config.o (.text.DL_SYSCTL_setFlashWaitState)
                  000060b4    00000020     encoder.o (.text.IRDM_get_average_speed)
                  000060d4    0000001e     ti_msp_dl_config.o (.text.DL_UART_setOversampling)
                  000060f2    00000002     --HOLE-- [fill = 0]
                  000060f4    0000001e     libclang_rt.builtins.a : ashldi3.S.obj (.text.__ashldi3)
                  00006112    0000001e     imu_ahrs.o (.text.imu_ahrs_make_s16)
                  00006130    0000001c     bsp_motor_hallencoder.o (.text.DL_GPIO_clearInterruptStatus)
                  0000614c    0000001c     ti_msp_dl_config.o (.text.DL_GPIO_clearInterruptStatus)
                  00006168    0000001c     mspm0_i2c.o (.text.DL_GPIO_enableHiZ)
                  00006184    0000001c     oled_hardware_i2c.o (.text.DL_GPIO_enableHiZ)
                  000061a0    0000001c     ti_msp_dl_config.o (.text.DL_GPIO_enableHiZ)
                  000061bc    0000001c     ti_msp_dl_config.o (.text.DL_GPIO_enableInterrupt)
                  000061d8    0000001c     ti_msp_dl_config.o (.text.DL_GPIO_initPeripheralOutputFunction)
                  000061f4    0000001c     ti_msp_dl_config.o (.text.DL_GPIO_setLowerPinsPolarity)
                  00006210    0000001c     oled_hardware_i2c.o (.text.DL_I2C_getSDAStatus)
                  0000622c    0000001c     mspm0_i2c.o (.text.DL_I2C_isControllerRXFIFOEmpty)
                  00006248    0000001c     driverlib.a : dl_sysctl_mspm0g1x0x_g3x0x.o (.text.DL_SYSCTL_configFCC)
                  00006264    0000001c     ti_msp_dl_config.o (.text.DL_SYSCTL_setFCCPeriods)
                  00006280    0000001c     ti_msp_dl_config.o (.text.DL_SYSCTL_setSYSOSCFreq)
                  0000629c    0000001c     ti_msp_dl_config.o (.text.DL_SYSCTL_setULPCLKDivider)
                  000062b8    0000001c     ti_msp_dl_config.o (.text.DL_Timer_enableInterrupt)
                  000062d4    0000001c     driverlib.a : dl_timer.o (.text.DL_Timer_setCaptCompUpdateMethod)
                  000062f0    0000001c                 : dl_timer.o (.text.DL_Timer_setClockConfig)
                  0000630c    0000001c     turn.o (.text.GoStraight_Stop)
                  00006328    0000001c     imu_ahrs.o (.text.IMU_AHRS_Attitude_Enable)
                  00006344    0000001c     interrupt.o (.text.Interrupt_Init)
                  00006360    0000001c     ti_msp_dl_config.o (.text.SYSCFG_DL_SYSCTL_CLK_init)
                  0000637c    0000001c     imu_ahrs.o (.text.imu_ahrs_write_reg)
                  00006398    00000018     mspm0_i2c.o (.text.DL_GPIO_enableOutput)
                  000063b0    00000018     oled_hardware_i2c.o (.text.DL_GPIO_enableOutput)
                  000063c8    00000018     ti_msp_dl_config.o (.text.DL_GPIO_enableOutput)
                  000063e0    00000018     ti_msp_dl_config.o (.text.DL_GPIO_enablePower)
                  000063f8    00000018     bsp_motor_hallencoder.o (.text.DL_GPIO_getEnabledInterruptStatus)
                  00006410    00000018     mspm0_i2c.o (.text.DL_GPIO_initDigitalOutput)
                  00006428    00000018     oled_hardware_i2c.o (.text.DL_GPIO_initDigitalOutput)
                  00006440    00000018     ti_msp_dl_config.o (.text.DL_GPIO_initDigitalOutput)
                  00006458    00000018     ti_msp_dl_config.o (.text.DL_GPIO_initPeripheralAnalogFunction)
                  00006470    00000018     ti_msp_dl_config.o (.text.DL_GPIO_reset)
                  00006488    00000018     bsp_tb6612.o (.text.DL_GPIO_setPins)
                  000064a0    00000018     mspm0_i2c.o (.text.DL_GPIO_setPins)
                  000064b8    00000018     oled_hardware_i2c.o (.text.DL_GPIO_setPins)
                  000064d0    00000018     ti_msp_dl_config.o (.text.DL_GPIO_setPins)
                  000064e8    00000018     ti_msp_dl_config.o (.text.DL_GPIO_setUpperPinsPolarity)
                  00006500    00000018     mspm0_i2c.o (.text.DL_I2C_clearInterruptStatus)
                  00006518    00000018     oled_hardware_i2c.o (.text.DL_I2C_clearInterruptStatus)
                  00006530    00000018     ti_msp_dl_config.o (.text.DL_I2C_enableAnalogGlitchFilter)
                  00006548    00000018     ti_msp_dl_config.o (.text.DL_I2C_enableController)
                  00006560    00000018     ti_msp_dl_config.o (.text.DL_I2C_enableControllerClockStretching)
                  00006578    00000018     mspm0_i2c.o (.text.DL_I2C_enablePower)
                  00006590    00000018     oled_hardware_i2c.o (.text.DL_I2C_enablePower)
                  000065a8    00000018     ti_msp_dl_config.o (.text.DL_I2C_enablePower)
                  000065c0    00000018     mspm0_i2c.o (.text.DL_I2C_getRawInterruptStatus)
                  000065d8    00000018     oled_hardware_i2c.o (.text.DL_I2C_getRawInterruptStatus)
                  000065f0    00000018     mspm0_i2c.o (.text.DL_I2C_reset)
                  00006608    00000018     oled_hardware_i2c.o (.text.DL_I2C_reset)
                  00006620    00000018     ti_msp_dl_config.o (.text.DL_I2C_reset)
                  00006638    00000018     ti_msp_dl_config.o (.text.DL_I2C_setTimerPeriod)
                  00006650    00000018     ti_msp_dl_config.o (.text.DL_SYSCTL_setBORThreshold)
                  00006668    00000018     ti_msp_dl_config.o (.text.DL_Timer_enablePower)
                  00006680    00000018     ti_msp_dl_config.o (.text.DL_Timer_reset)
                  00006698    00000018     driverlib.a : dl_timer.o (.text.DL_Timer_setCaptureCompareOutCtl)
                  000066b0    00000018     ti_msp_dl_config.o (.text.DL_UART_enablePower)
                  000066c8    00000018     board.o (.text.DL_UART_isBusy)
                  000066e0    00000018     ti_msp_dl_config.o (.text.DL_UART_reset)
                  000066f8    00000018     follow.o (.text.IRDM_NeedTurnLeftFast)
                  00006710    00000018     follow.o (.text.IRDM_NeedTurnRightFast)
                  00006728    00000018     clock.o (.text.SysTick_Init)
                  00006740    00000018     libc.a : vsnprintf.c.obj (.text._outc)
                  00006758    00000018            : sprintf.c.obj (.text._outs)
                  00006770    00000016     bsp_motor_hallencoder.o (.text.DL_GPIO_readPins)
                  00006786    00000016     follow.o (.text.DL_GPIO_readPins)
                  0000679c    00000016     mspm0_i2c.o (.text.DL_GPIO_readPins)
                  000067b2    00000016     oled_hardware_i2c.o (.text.DL_GPIO_readPins)
                  000067c8    00000016     mspm0_i2c.o (.text.DL_I2C_transmitControllerData)
                  000067de    00000016     ti_msp_dl_config.o (.text.DL_UART_enable)
                  000067f4    00000016     board.o (.text.DL_UART_transmitData)
                  0000680a    00000016     speed_pid.o (.text.SpeedPID_Reset)
                  00006820    00000016     libc.a : copy_zero_init.c.obj (.text:decompress:ZI:__TI_zero_init_nomemset)
                  00006836    00000014     bsp_tb6612.o (.text.DL_GPIO_clearPins)
                  0000684a    00000014     mspm0_i2c.o (.text.DL_GPIO_clearPins)
                  0000685e    00000014     oled_hardware_i2c.o (.text.DL_GPIO_clearPins)
                  00006872    00000002     --HOLE-- [fill = 0]
                  00006874    00000014     mspm0_i2c.o (.text.DL_I2C_getControllerStatus)
                  00006888    00000014     oled_hardware_i2c.o (.text.DL_I2C_getControllerStatus)
                  0000689c    00000014     mspm0_i2c.o (.text.DL_I2C_receiveControllerData)
                  000068b0    00000014     ti_msp_dl_config.o (.text.DL_I2C_resetControllerTransfer)
                  000068c4    00000014     ti_msp_dl_config.o (.text.DL_SYSCTL_disableSYSPLL)
                  000068d8    00000014     ti_msp_dl_config.o (.text.DL_SYSCTL_enableSYSPLL)
                  000068ec    00000014     ti_msp_dl_config.o (.text.DL_Timer_enableClock)
                  00006900    00000014     ti_msp_dl_config.o (.text.DL_Timer_setCCPDirection)
                  00006914    00000014     control_mixer.o (.text.Mixer_Init)
                  00006928    00000014     control_mixer.o (.text.Mixer_SetAngleDiff)
                  0000693c    00000014     control_mixer.o (.text.Mixer_SetFollowDiff)
                  00006950    00000014     control_mixer.o (.text.Mixer_SetSpeedDiff)
                  00006964    00000014     libclang_rt.builtins.a : aeabi_uldivmod.S.obj (.text.__aeabi_uldivmod)
                  00006978    00000014     libc.a : _printfi.c.obj (.text.strchr)
                  0000698c    00000012     angle_pid.o (.text.AnglePD_Reset)
                  0000699e    00000012     bsp_motor_hallencoder.o (.text.DL_Timer_getPendingInterrupt)
                  000069b0    00000012     driverlib.a : dl_uart.o (.text.DL_UART_setClockConfig)
                  000069c2    00000012     libc.a : memcpy16.S.obj (.text:TI_memcpy_small)
                  000069d4    00000012            : copy_decompress_none.c.obj (.text:decompress:none)
                  000069e6    00000002     --HOLE-- [fill = 0]
                  000069e8    00000010     ti_msp_dl_config.o (.text.DL_SYSCTL_disableHFXT)
                  000069f8    00000010     ti_msp_dl_config.o (.text.DL_SYSCTL_isFCCDone)
                  00006a08    00000010     ti_msp_dl_config.o (.text.DL_SYSCTL_startFCC)
                  00006a18    00000010     driverlib.a : dl_timer.o (.text.DL_Timer_setCaptureCompareValue)
                  00006a28    00000010     follow.o (.text.IRDM_GetCorrection)
                  00006a38    00000010     speed_control.o (.text.SpeedLoop_GetCorrection)
                  00006a48    00000010     interrupt.o (.text.SysTick_Handler)
                  00006a58    00000010     oled_hardware_i2c.o (.text.delay_ms)
                  00006a68    00000010     libc.a : wcslen.c.obj (.text.wcslen)
                  00006a78    0000000e     libclang_rt.builtins.a : aeabi_memset.S.obj (.text.__aeabi_memset)
                  00006a86    0000000e     libc.a : _printfi.c.obj (.text.strlen)
                  00006a94    0000000e            : memset16.S.obj (.text:TI_memset_small)
                  00006aa2    00000002     --HOLE-- [fill = 0]
                  00006aa4    0000000c     ti_msp_dl_config.o (.text.DL_SYSCTL_getClockStatus)
                  00006ab0    0000000c     ti_msp_dl_config.o (.text.DL_SYSCTL_readFCC)
                  00006abc    0000000c     imu_ahrs.o (.text.IMU_AHRS_GetStatus)
                  00006ac8    0000000c     imu_ahrs.o (.text.IMU_AHRS_TurnAngle_Get)
                  00006ad4    0000000c     imu_ahrs.o (.text.IMU_AHRS_TurnAngle_Reset)
                  00006ae0    0000000c     ti_msp_dl_config.o (.text.SYSCFG_DL_SYSTICK_init)
                  00006aec    0000000c     turn.o (.text.Turn_GetCurrentError)
                  00006af8    0000000c     libclang_rt.builtins.a : aeabi_memset.S.obj (.text.__aeabi_memclr)
                  00006b04    0000000a     driverlib.a : dl_common.o (.text.DL_Common_delayCycles)
                  00006b0e    0000000a     libc.a : _printfi.c.obj (.text.OUTLINED_FUNCTION_0)
                  00006b18    00000010     libclang_rt.builtins.a : adddf3.S.obj (.tramp.__aeabi_dsub.1)
                  00006b28    0000000a     libc.a : _printfi.c.obj (.text.OUTLINED_FUNCTION_1)
                  00006b32    0000000a            : sprintf.c.obj (.text._outc)
                  00006b3c    00000008            : aeabi_portable.c.obj (.text.__aeabi_errno_addr)
                  00006b44    00000008     libclang_rt.builtins.a : aeabi_memcpy.S.obj (.text.__aeabi_memcpy)
                  00006b4c    00000006     libc.a : s_atanf.c.obj (.text.OUTLINED_FUNCTION_0)
                  00006b52    00000002     --HOLE-- [fill = 0]
                  00006b54    00000010     libclang_rt.builtins.a : divsf3.S.obj (.tramp.__aeabi_fdiv.1)
                  00006b64    00000006     libc.a : exit.c.obj (.text:abort)
                  00006b6a    00000004     startup_mspm0g350x_ticlang.o (.text.Default_Handler)
                  00006b6e    00000004     libsysbm.a : hostexit.c.obj (.text.HOSTexit)
                  00006b72    00000004     libc.a : s_atanf.c.obj (.text.OUTLINED_FUNCTION_1)
                  00006b76    00000002     --HOLE-- [fill = 0]
                  00006b78    00000010     libclang_rt.builtins.a : addsf3.S.obj (.tramp.__aeabi_fadd.1)
                  00006b88    00000004     startup_mspm0g350x_ticlang.o (.text.Reset_Handler)
                  00006b8c    00000010     libc.a : boot_cortex_m.c.obj (.tramp._c_int00_noargs.1)
                  00006b9c    00000004            : pre_init.c.obj (.text._system_pre_init)

.cinit     0    00007780    00000038     
                  00007780    0000000e     (.cinit..data.load) [load image, compression = lzss]
                  0000778e    00000002     --HOLE-- [fill = 0]
                  00007790    0000000c     (__TI_handler_table)
                  0000779c    00000008     (.cinit..bss.load) [load image, compression = zero_init]
                  000077a4    00000010     (__TI_cinit_table)
                  000077b4    00000004     --HOLE-- [fill = 0]

.rodata    0    00006ba0    00000be0     
                  00006ba0    000005f0     oled_hardware_i2c.o (.rodata.asc2_1608)
                  00007190    00000228     oled_hardware_i2c.o (.rodata.asc2_0806)
                  000073b8    00000008     ti_msp_dl_config.o (.rodata.gPWM_0Config)
                  000073c0    00000101     libc.a : aeabi_ctype.S.obj (.rodata:__aeabi_ctype_table_)
                  000074c1    00000043     speed_pid.o (.rodata.str1.10691210535337333809.1)
                  00007504    00000031     angle_pid.o (.rodata.str1.17946244033951315791.1)
                  00007535    0000002e     turn.o (.rodata.str1.15825708390215290014.1)
                  00007563    00000029     turn.o (.rodata.str1.5629261088651828382.1)
                  0000758c    00000028     ti_msp_dl_config.o (.rodata.gSYSPLLConfig)
                  000075b4    00000027     turn.o (.rodata.str1.12169309537937164861.1)
                  000075db    00000025     speed_control.o (.rodata.str1.15839901581566842560.1)
                  00007600    00000023     turn.o (.rodata.str1.5746031573702582919.1)
                  00007623    00000021     bsp_motor_hallencoder.o (.rodata.str1.13219907530406960793.1)
                  00007644    00000021     bsp_tb6612.o (.rodata.str1.15091695396400935675.1)
                  00007665    00000021     turn.o (.rodata.str1.16597584144434937163.1)
                  00007686    00000002     ti_msp_dl_config.o (.rodata.gI2C_MPU6050ClockConfig)
                  00007688    00000020     libc.a : s_atanf.c.obj (.rodata.cst16)
                  000076a8    00000020     follow.o (.rodata.cst32)
                  000076c8    0000001c     turn.o (.rodata.str1.7630309525740087319.1)
                  000076e4    00000014     ti_msp_dl_config.o (.rodata.gTIMER_0TimerConfig)
                  000076f8    00000011     libc.a : _printfi.c.obj (.rodata.str1.10348868589481759720.1)
                  00007709    00000011            : _printfi.c.obj (.rodata.str1.15363888844622738466.1)
                  0000771a    0000000d     main.o (.rodata.str1.15159059442110792349.1)
                  00007727    0000000c     main.o (.rodata.str1.16265332423659789559.1)
                  00007733    00000001     --HOLE-- [fill = 0]
                  00007734    0000000a     ti_msp_dl_config.o (.rodata.gUART_0Config)
                  0000773e    00000007     main.o (.rodata.str1.288608917962107522.1)
                  00007745    00000006     main.o (.rodata.str1.15996357275703397564.1)
                  0000774b    00000006     main.o (.rodata.str1.17100691992556644108.1)
                  00007751    00000006     main.o (.rodata.str1.18227636981041470289.1)
                  00007757    00000006     main.o (.rodata.str1.2846389346932560359.1)
                  0000775d    00000006     main.o (.rodata.str1.7702501944640899365.1)
                  00007763    00000006     main.o (.rodata.str1.8154729771448623357.1)
                  00007769    00000005     main.o (.rodata.str1.12180500075719773345.1)
                  0000776e    00000004     main.o (.rodata.str1.14112174005742061988.1)
                  00007772    00000003     ti_msp_dl_config.o (.rodata.gPWM_0ClockConfig)
                  00007775    00000003     ti_msp_dl_config.o (.rodata.gTIMER_0ClockConfig)
                  00007778    00000002     ti_msp_dl_config.o (.rodata.gI2C_OLEDClockConfig)
                  0000777a    00000002     ti_msp_dl_config.o (.rodata.gUART_0ClockConfig)
                  0000777c    00000004     --HOLE-- [fill = 0]

.init_array 
*          0    00000000    00000000     UNINITIALIZED

.binit     0    00000000    00000000     

.bss       0    20200000    000001bc     UNINITIALIZED
                  20200000    000000bc     (.common:gPWM_0Backup)
                  202000bc    00000058     imu_ahrs.o (.bss.g_imu)
                  20200114    00000020     speed_control.o (.bss.g_speed_pid)
                  20200134    00000020     (.common:oled_buffer)
                  20200154    00000014     turn.o (.bss.g_straight_pd)
                  20200168    00000014     turn.o (.bss.g_turn_pd)
                  2020017c    0000000e     imu_ahrs.o (.bss.g_calib_burst)
                  2020018a    00000001     turn.o (.bss.g_turn_stable_cnt)
                  2020018b    00000001     --HOLE--
                  2020018c    00000008     bsp_motor_hallencoder.o (.bss.Encoder_A)
                  20200194    00000008     bsp_motor_hallencoder.o (.bss.Encoder_B)
                  2020019c    00000004     turn.o (.bss.g_straight_speed)
                  202001a0    00000004     turn.o (.bss.g_straight_target_yaw)
                  202001a4    00000004     turn.o (.bss.g_turn_error)
                  202001a8    00000004     turn.o (.bss.g_turn_output)
                  202001ac    00000004     turn.o (.bss.g_turn_start_ms)
                  202001b0    00000004     turn.o (.bss.g_turn_target)
                  202001b4    00000004     (.common:start_time)
                  202001b8    00000004     (.common:tick_ms)

.data      0    202001c0    000000f5     UNINITIALIZED
                  202001c0    00000020     follow.o (.data.sensor_history)
                  202001e0    00000018     encoder.o (.data.wheel_speed)
                  202001f8    00000008     imu_ahrs.o (.data.g_yaw_sum_t2)
                  20200200    00000008     imu_ahrs.o (.data.g_yaw_sum_t)
                  20200208    00000008     imu_ahrs.o (.data.g_yaw_sum_ty)
                  20200210    00000008     imu_ahrs.o (.data.g_yaw_sum_y)
                  20200218    00000008     follow.o (.data.sensor_filtered)
                  20200220    00000008     follow.o (.data.sensor_states)
                  20200228    00000004     speed_control.o (.data.SpeedLoop_Update.accum_dt)
                  2020022c    00000004     libc.a : aeabi_portable.c.obj (.data.__aeabi_errno)
                  20200230    00000004     encoder.o (.data.accum_left_pulses)
                  20200234    00000004     encoder.o (.data.accum_right_pulses)
                  20200238    00000004     encoder.o (.data.decim_count)
                  2020023c    00000004     encoder.o (.data.filtered_left_speed_mmps)
                  20200240    00000004     encoder.o (.data.filtered_right_speed_mmps)
                  20200244    00000004     imu_ahrs.o (.data.g_calib_sum_x)
                  20200248    00000004     imu_ahrs.o (.data.g_calib_sum_y)
                  2020024c    00000004     imu_ahrs.o (.data.g_calib_sum_z)
                  20200250    00000004     speed_control.o (.data.g_current_error)
                  20200254    00000004     imu_ahrs.o (.data.g_init_deadline)
                  20200258    00000004     imu_ahrs.o (.data.g_init_start_time)
                  2020025c    00000004     imu_ahrs.o (.data.g_integral_fb_x)
                  20200260    00000004     imu_ahrs.o (.data.g_integral_fb_y)
                  20200264    00000004     imu_ahrs.o (.data.g_integral_fb_z)
                  20200268    00000004     control_mixer.o (.data.g_mix_base)
                  2020026c    00000004     speed_control.o (.data.g_target_speed)
                  20200270    00000004     imu_ahrs.o (.data.g_turn_angle)
                  20200274    00000004     imu_ahrs.o (.data.g_yaw_calib_count)
                  20200278    00000004     imu_ahrs.o (.data.g_yaw_calib_start_time)
                  2020027c    00000004     imu_ahrs.o (.data.g_yaw_drift_k)
                  20200280    00000004     imu_ahrs.o (.data.g_yaw_start_time)
                  20200284    00000004     follow.o (.data.integral)
                  20200288    00000004     follow.o (.data.last_bias)
                  2020028c    00000004     main.o (.data.main.last_update)
                  20200290    00000004     main.o (.data.main.oled_last_update)
                  20200294    00000004     main.o (.data.main.pre_turn_angle)
                  20200298    00000004     main.o (.data.main.pre_turn_deadline)
                  2020029c    00000004     main.o (.data.main.turn_cooldown_deadline)
                  202002a0    00000002     control_mixer.o (.data.g_angle_diff)
                  202002a2    00000002     imu_ahrs.o (.data.g_calib_sample_idx)
                  202002a4    00000002     control_mixer.o (.data.g_follow_diff)
                  202002a6    00000002     control_mixer.o (.data.g_speed_diff)
                  202002a8    00000002     follow.o (.data.last_correction)
                  202002aa    00000001     interrupt.o (.data.enable_group1_irq)
                  202002ab    00000001     bsp_motor_hallencoder.o (.data.g_encoder_new_data)
                  202002ac    00000001     imu_ahrs.o (.data.g_init_state)
                  202002ad    00000001     imu_ahrs.o (.data.g_status)
                  202002ae    00000001     turn.o (.data.g_straight_state)
                  202002af    00000001     turn.o (.data.g_turn_state)
                  202002b0    00000001     imu_ahrs.o (.data.g_yaw_calib_state)
                  202002b1    00000001     imu_ahrs.o (.data.g_yaw_enable)
                  202002b2    00000001     main.o (.data.main.state)
                  202002b3    00000001     main.o (.data.main.was_on_black)
                  202002b4    00000001     main.o (.data.main.yaw_calib_done)

.stack     0    20207e00    00000200     UNINITIALIZED
                  20207e00    00000004     libc.a : boot_cortex_m.c.obj (.stack)
                  20207e04    000001fc     --HOLE--

__llvm_prf_cnts 
*          0    20200000    00000000     UNINITIALIZED

__llvm_prf_bits 
*          0    20200000    00000000     UNINITIALIZED

MODULE SUMMARY

       Module                         code    ro data   rw data
       ------                         ----    -------   -------
    .\
       ti_msp_dl_config.o             3174    90        188    
       main.o                         1256    77        55     
       startup_mspm0g350x_ticlang.o   8       192       0      
    +--+------------------------------+-------+---------+---------+
       Total:                         4438    359       243    
                                                               
    .\Drivers\AnglePID\
       angle_pid.o                    366     49        0      
    +--+------------------------------+-------+---------+---------+
       Total:                         366     49        0      
                                                               
    .\Drivers\Encoder\
       bsp_motor_hallencoder.o        584     33        17     
       encoder.o                      460     0         44     
       speed_pid.o                    434     67        0      
       speed_control.o                208     37        44     
    +--+------------------------------+-------+---------+---------+
       Total:                         1686    137       105    
                                                               
    .\Drivers\IMU_AHRS\
       imu_ahrs.o                     3418    0         192    
       mspm0_i2c.o                    1368    0         0      
    +--+------------------------------+-------+---------+---------+
       Total:                         4786    0         192    
                                                               
    .\Drivers\MSPM0\
       clock.o                        328     0         8      
       board.o                        222     0         0      
       interrupt.o                    88      0         1      
    +--+------------------------------+-------+---------+---------+
       Total:                         638     0         9      
                                                               
    .\Drivers\Mix_Control\
       control_mixer.o                232     0         10     
    +--+------------------------------+-------+---------+---------+
       Total:                         232     0         10     
                                                               
    .\Drivers\OLED_Hardware_I2C\
       oled_hardware_i2c.o            1816    2072      0      
    +--+------------------------------+-------+---------+---------+
       Total:                         1816    2072      0      
                                                               
    .\Drivers\TB6612_Motor\
       turn.o                         1402    222       67     
       follow.o                       958     32        58     
       bsp_tb6612.o                   356     33        0      
    +--+------------------------------+-------+---------+---------+
       Total:                         2716    287       125    
                                                               
    D:/develop/TI/CCS/mspm0_sdk_2_10_00_04/source/ti/driverlib/lib/ticlang/m0p/mspm0g1x0x_g3x0x/driverlib.a
       dl_timer.o                     608     0         0      
       dl_sysctl_mspm0g1x0x_g3x0x.o   416     0         0      
       dl_i2c.o                       192     0         0      
       dl_uart.o                      90      0         0      
       dl_common.o                    10      0         0      
    +--+------------------------------+-------+---------+---------+
       Total:                         1316    0         0      
                                                               
    D:\develop\TI\CCS\ti_cgt_arm_llvm_4.0.4.LTS\lib\armv6m-ti-none-eabi/c/libc.a
       _printfi.c.obj                 4510    34        0      
       s_atanf.c.obj                  466     32        0      
       e_atan2f.c.obj                 280     0         0      
       aeabi_ctype.S.obj              0       257       0      
       s_scalbn.c.obj                 216     0         0      
       vsnprintf.c.obj                136     0         0      
       copy_decompress_lzss.c.obj     124     0         0      
       s_frexp.c.obj                  92      0         0      
       sprintf.c.obj                  90      0         0      
       _ltoa.c.obj                    88      0         0      
       atoi.c.obj                     64      0         0      
       autoinit.c.obj                 60      0         0      
       boot_cortex_m.c.obj            56      0         0      
       memccpy.c.obj                  34      0         0      
       copy_zero_init.c.obj           22      0         0      
       copy_decompress_none.c.obj     18      0         0      
       memcpy16.S.obj                 18      0         0      
       wcslen.c.obj                   16      0         0      
       memset16.S.obj                 14      0         0      
       aeabi_portable.c.obj           8       0         4      
       exit.c.obj                     6       0         0      
       pre_init.c.obj                 4       0         0      
    +--+------------------------------+-------+---------+---------+
       Total:                         6322    323       4      
                                                               
    D:\develop\TI\CCS\ti_cgt_arm_llvm_4.0.4.LTS\lib\armv6m-ti-none-eabi/c/libsysbm.a
       hostexit.c.obj                 4       0         0      
    +--+------------------------------+-------+---------+---------+
       Total:                         4       0         0      
                                                               
    D:\develop\TI\CCS\ti_cgt_arm_llvm_4.0.4.LTS\lib\armv6m-ti-none-eabi/libclang_rt.builtins.a
       adddf3.S.obj                   418     0         0      
       divdf3.S.obj                   268     0         0      
       addsf3.S.obj                   232     0         0      
       muldf3.S.obj                   228     0         0      
       comparedf2.c.obj               220     0         0      
       udivmoddi4.S.obj               162     0         0      
       divsf3.S.obj                   146     0         0      
       mulsf3.S.obj                   140     0         0      
       comparesf2.S.obj               118     0         0      
       truncdfsf2.S.obj               116     0         0      
       aeabi_dcmp.S.obj               98      0         0      
       aeabi_fcmp.S.obj               98      0         0      
       aeabi_idivmod.S.obj            86      0         0      
       fixdfsi.S.obj                  74      0         0      
       aeabi_uidivmod.S.obj           64      0         0      
       extendsfdf2.S.obj              64      0         0      
       floatsisf.S.obj                60      0         0      
       muldsi3.S.obj                  58      0         0      
       fixsfsi.S.obj                  56      0         0      
       fixunssfsi.S.obj               50      0         0      
       floatsidf.S.obj                44      0         0      
       floatunsisf.S.obj              40      0         0      
       floatunsidf.S.obj              36      0         0      
       muldi3.S.obj                   36      0         0      
       ashldi3.S.obj                  30      0         0      
       aeabi_memset.S.obj             26      0         0      
       aeabi_uldivmod.S.obj           20      0         0      
       aeabi_memcpy.S.obj             8       0         0      
       aeabi_div0.c.obj               4       0         0      
    +--+------------------------------+-------+---------+---------+
       Total:                         3000    0         0      
                                                               
       Stack:                         0       0         512    
       Linker Generated:              0       50        0      
    +--+------------------------------+-------+---------+---------+
       Grand Total:                   27320   3277      1200   


LINKER GENERATED COPY TABLES

__TI_cinit_table @ 000077a4 records: 2, size/record: 8, table size: 16
	.data: load addr=00007780, load size=0000000e bytes, run addr=202001c0, run size=000000f5 bytes, compression=lzss
	.bss: load addr=0000779c, load size=00000008 bytes, run addr=20200000, run size=000001bc bytes, compression=zero_init


LINKER GENERATED HANDLER TABLE

__TI_handler_table @ 00007790 records: 3, size/record: 4, table size: 12
	index: 0, handler: __TI_decompress_lzss
	index: 1, handler: __TI_decompress_none
	index: 2, handler: __TI_zero_init


FAR CALL TRAMPOLINES

callee name               trampoline name
   callee addr  tramp addr   call addr  call info
--------------  -----------  ---------  ----------------
__aeabi_dsub              $Tramp$TT$L$PI$$__aeabi_dsub
   0000226d     00006b18     00006b16   libc.a : _printfi.c.obj (.text.OUTLINED_FUNCTION_0)
__aeabi_fdiv              $Tramp$TT$L$PI$$__aeabi_fdiv
   00004415     00006b54     00006b50   libc.a : s_atanf.c.obj (.text.OUTLINED_FUNCTION_0)
__aeabi_fadd              $Tramp$TT$L$PI$$__aeabi_fadd
   000037c3     00006b78     00006b74   libc.a : s_atanf.c.obj (.text.OUTLINED_FUNCTION_1)
_c_int00_noargs           $Tramp$TT$L$PI$$_c_int00_noargs
   00005f91     00006b8c     00006b88   startup_mspm0g350x_ticlang.o (.text.Reset_Handler)

[4 trampolines]
[4 trampoline calls]


GLOBAL SYMBOLS: SORTED ALPHABETICALLY BY Name 

address   name                                 
-------   ----                                 
00006b6b  ADC0_IRQHandler                      
00006b6b  ADC1_IRQHandler                      
00006b6b  AES_IRQHandler                       
00004499  AO_Control                           
00004931  AnglePD_Init                         
0000698d  AnglePD_Reset                        
00003c7d  AnglePD_Update                       
00004519  BO_Control                           
00006b6e  C$$EXIT                              
00006b6b  CANFD0_IRQHandler                    
00006b6b  DAC0_IRQHandler                      
00006b05  DL_Common_delayCycles                
00004c49  DL_I2C_fillControllerTXFIFO          
000058cd  DL_I2C_flushControllerTXFIFO         
00005fdf  DL_I2C_setClockConfig                
00006249  DL_SYSCTL_configFCC                  
00003605  DL_SYSCTL_configSYSPLL               
00004995  DL_SYSCTL_setHFCLKSourceHFXTParams   
0000567d  DL_SYSCTL_switchMCLKfromSYSOSCtoHSCLK
00003139  DL_Timer_initFourCCPWMMode           
0000323d  DL_Timer_initTimerMode               
000062d5  DL_Timer_setCaptCompUpdateMethod     
00006699  DL_Timer_setCaptureCompareOutCtl     
00006a19  DL_Timer_setCaptureCompareValue      
000062f1  DL_Timer_setClockConfig              
00005515  DL_UART_init                         
000069b1  DL_UART_setClockConfig               
00006b6b  DMA_IRQHandler                       
00006b6b  Default_Handler                      
00006b6b  GROUP0_IRQHandler                    
00003339  GROUP1_IRQHandler                    
00005209  GoStraight_GetCorrection             
00003965  GoStraight_Poll                      
00003dd1  GoStraight_Start                     
0000630d  GoStraight_Stop                      
00006b6f  HOSTexit                             
00006b6b  HardFault_Handler                    
00006b6b  I2C0_IRQHandler                      
00006b6b  I2C1_IRQHandler                      
00006329  IMU_AHRS_Attitude_Enable             
00004709  IMU_AHRS_GetData                     
00006abd  IMU_AHRS_GetStatus                   
000049f9  IMU_AHRS_Get_Yaw_Compensated         
00002569  IMU_AHRS_Init_Poll                   
00003e71  IMU_AHRS_Init_Start                  
00006ac9  IMU_AHRS_TurnAngle_Get               
00006ad5  IMU_AHRS_TurnAngle_Reset             
00000a91  IMU_AHRS_Update_Attitude             
00002401  IMU_AHRS_Update_Data                 
00001965  IMU_AHRS_Yaw_Calib_Poll              
00005259  IMU_AHRS_Yaw_Calib_Start             
00006a29  IRDM_GetCorrection                   
000056c1  IRDM_IsBlackLine                     
000066f9  IRDM_NeedTurnLeftFast                
00006711  IRDM_NeedTurnRightFast               
00002aa1  IRDM_UpdatePositionPID               
00004041  IRDM_calculate_bias                  
000060b5  IRDM_get_average_speed               
000026cd  IRDM_read_sensors                    
000020c1  IRDM_update_wheel_speed              
00006345  Interrupt_Init                       
00003f11  Mixer_Apply                          
00006915  Mixer_Init                           
00006929  Mixer_SetAngleDiff                   
0000693d  Mixer_SetFollowDiff                  
00006951  Mixer_SetSpeedDiff                   
00005d6d  Motor_Get_Encoder                    
00005cad  Motor_Init                           
00006b6b  NMI_Handler                          
000047f5  OLED_Clear                           
00002f1d  OLED_Init                            
00005945  OLED_Set_Pos                         
00002ced  OLED_ShowChar                        
00004785  OLED_ShowString                      
00003fa9  OLED_WR_Byte                         
00006b6b  PendSV_Handler                       
00006b6b  RTC_IRQHandler                       
00006b89  Reset_Handler                        
00006b6b  SPI0_IRQHandler                      
00006b6b  SPI1_IRQHandler                      
00006b6b  SVC_Handler                          
00001d21  SYSCFG_DL_GPIO_init                  
00004e19  SYSCFG_DL_I2C_MPU6050_init           
00004e71  SYSCFG_DL_I2C_OLED_init              
000040d5  SYSCFG_DL_PWM_0_init                 
00006361  SYSCFG_DL_SYSCTL_CLK_init            
00003435  SYSCFG_DL_SYSCTL_SYSPLL_init         
00004599  SYSCFG_DL_SYSCTL_init                
00006ae1  SYSCFG_DL_SYSTICK_init               
00005981  SYSCFG_DL_TIMER_0_init               
0000578d  SYSCFG_DL_UART_0_init                
00005b99  SYSCFG_DL_init                       
000041f5  SYSCFG_DL_initPower                  
00006a39  SpeedLoop_GetCorrection              
00004ca9  SpeedLoop_Init                       
00004a5d  SpeedLoop_Update                     
00004165  SpeedPID_Init                        
0000680b  SpeedPID_Reset                       
00003a31  SpeedPID_Update                      
00006a49  SysTick_Handler                      
00006729  SysTick_Init                         
00005bd1  TB6612_Motor_Stop                    
00006b6b  TIMA0_IRQHandler                     
00006b6b  TIMA1_IRQHandler                     
000059bd  TIMG0_IRQHandler                     
00006b6b  TIMG12_IRQHandler                    
00006b6b  TIMG6_IRQHandler                     
00006b6b  TIMG7_IRQHandler                     
00006b6b  TIMG8_IRQHandler                     
000069c3  TI_memcpy_small                      
00006a95  TI_memset_small                      
00005749  TurnByAngle_Start                    
00003891  TurnToAngle_Start                    
00006aed  Turn_GetCurrentError                 
00001519  Turn_Poll                            
00006b6b  UART0_IRQHandler                     
00006b6b  UART1_IRQHandler                     
00006b6b  UART2_IRQHandler                     
00006b6b  UART3_IRQHandler                     
20208000  __STACK_END                          
00000200  __STACK_SIZE                         
00000000  __TI_ATRegion0_region_sz             
00000000  __TI_ATRegion0_src_addr              
00000000  __TI_ATRegion0_trg_addr              
00000000  __TI_ATRegion1_region_sz             
00000000  __TI_ATRegion1_src_addr              
00000000  __TI_ATRegion1_trg_addr              
00000000  __TI_ATRegion2_region_sz             
00000000  __TI_ATRegion2_src_addr              
00000000  __TI_ATRegion2_trg_addr              
000077a4  __TI_CINIT_Base                      
000077b4  __TI_CINIT_Limit                     
000077b4  __TI_CINIT_Warm                      
00007790  __TI_Handler_Table_Base              
0000779c  __TI_Handler_Table_Limit             
00005aad  __TI_auto_init_nobinit_nopinit       
00004619  __TI_decompress_lzss                 
000069d5  __TI_decompress_none                 
00004ec9  __TI_ltoa                            
ffffffff  __TI_pprof_out_hndl                  
000000c1  __TI_printfi                         
ffffffff  __TI_prof_data_size                  
ffffffff  __TI_prof_data_start                 
00000000  __TI_static_base__                   
00006821  __TI_zero_init_nomemset              
00002277  __adddf3                             
000037c3  __addsf3                             
000073c0  __aeabi_ctype_table_                 
000073c0  __aeabi_ctype_table_C                
00004711  __aeabi_d2f                          
000054c9  __aeabi_d2iz                         
00002277  __aeabi_dadd                         
00004ac1  __aeabi_dcmpeq                       
00004afd  __aeabi_dcmpge                       
00004b11  __aeabi_dcmpgt                       
00004ae9  __aeabi_dcmple                       
00004ad5  __aeabi_dcmplt                       
0000302d  __aeabi_ddiv                         
00003521  __aeabi_dmul                         
0000226d  __aeabi_dsub                         
2020022c  __aeabi_errno                        
00006b3d  __aeabi_errno_addr                   
0000580d  __aeabi_f2d                          
00005c09  __aeabi_f2iz                         
00005c79  __aeabi_f2uiz                        
000037c3  __aeabi_fadd                         
00004b25  __aeabi_fcmpeq                       
00004b61  __aeabi_fcmpge                       
00004b75  __aeabi_fcmpgt                       
00004b4d  __aeabi_fcmple                       
00004b39  __aeabi_fcmplt                       
00004415  __aeabi_fdiv                         
00004281  __aeabi_fmul                         
000037b9  __aeabi_fsub                         
00005e1d  __aeabi_i2d                          
000059f9  __aeabi_i2f                          
00004f79  __aeabi_idiv                         
000023ff  __aeabi_idiv0                        
00004f79  __aeabi_idivmod                      
00003dcf  __aeabi_ldiv0                        
000060f5  __aeabi_llsl                         
00006029  __aeabi_lmul                         
00006af9  __aeabi_memclr                       
00006af9  __aeabi_memclr4                      
00006af9  __aeabi_memclr8                      
00006b45  __aeabi_memcpy                       
00006b45  __aeabi_memcpy4                      
00006b45  __aeabi_memcpy8                      
00006a79  __aeabi_memset                       
00006a79  __aeabi_memset4                      
00006a79  __aeabi_memset8                      
00006005  __aeabi_ui2d                         
00005f69  __aeabi_ui2f                         
000057cd  __aeabi_uidiv                        
000057cd  __aeabi_uidivmod                     
00006965  __aeabi_uldivmod                     
000060f5  __ashldi3                            
ffffffff  __binit__                            
00004861  __cmpdf2                             
00005ae9  __cmpsf2                             
0000302d  __divdf3                             
00004415  __divsf3                             
00004861  __eqdf2                              
00005ae9  __eqsf2                              
0000580d  __extendsfdf2                        
000054c9  __fixdfsi                            
00005c09  __fixsfsi                            
00005c79  __fixunssfsi                         
00005e1d  __floatsidf                          
000059f9  __floatsisf                          
00006005  __floatunsidf                        
00005f69  __floatunsisf                        
00004695  __gedf2                              
00005a35  __gesf2                              
00004695  __gtdf2                              
00005a35  __gtsf2                              
00004861  __ledf2                              
00005ae9  __lesf2                              
00004861  __ltdf2                              
00005ae9  __ltsf2                              
UNDEFED   __mpu_init                           
00003521  __muldf3                             
00006029  __muldi3                             
00005b25  __muldsi3                            
00004281  __mulsf3                             
00004861  __nedf2                              
00005ae9  __nesf2                              
20207e00  __stack                              
20200000  __start___llvm_prf_bits              
20200000  __start___llvm_prf_cnts              
20200000  __stop___llvm_prf_bits               
20200000  __stop___llvm_prf_cnts               
0000226d  __subdf3                             
000037b9  __subsf3                             
00004711  __truncdfsf2                         
00003d2d  __udivmoddi4                         
00005f91  _c_int00_noargs                      
UNDEFED   _system_post_cinit                   
00006b9d  _system_pre_init                     
00006b65  abort                                
00007190  asc2_0806                            
00006ba0  asc2_1608                            
00002e05  atan2f                               
00001ef9  atanf                                
0000584d  atoi                                 
ffffffff  binit                                
00006a59  delay_ms                             
202002aa  enable_group1_irq                    
00004d05  frexp                                
00004d05  frexpl                               
20200000  gPWM_0Backup                         
202002ab  g_encoder_new_data                   
00000000  interruptVectors                     
000055ed  lc_printf                            
000036e1  ldexp                                
000036e1  ldexpl                               
00001031  main                                 
00006071  memccpy                              
00004b89  mpu6050_i2c_sda_unlock               
00005d3d  mspm0_delay_ms                       
00005e49  mspm0_get_clock_ms                   
0000296d  mspm0_i2c_read                       
00003bb9  mspm0_i2c_write                      
20200134  oled_buffer                          
00004be9  oled_i2c_sda_unlock                  
000036e1  scalbn                               
000036e1  scalbnl                              
00005c41  sprintf                              
202001b4  start_time                           
202001b8  tick_ms                              
0000588d  vsnprintf                            
00006a69  wcslen                               


GLOBAL SYMBOLS: SORTED BY Symbol Address 

address   name                                 
-------   ----                                 
00000000  __TI_ATRegion0_region_sz             
00000000  __TI_ATRegion0_src_addr              
00000000  __TI_ATRegion0_trg_addr              
00000000  __TI_ATRegion1_region_sz             
00000000  __TI_ATRegion1_src_addr              
00000000  __TI_ATRegion1_trg_addr              
00000000  __TI_ATRegion2_region_sz             
00000000  __TI_ATRegion2_src_addr              
00000000  __TI_ATRegion2_trg_addr              
00000000  __TI_static_base__                   
00000000  interruptVectors                     
000000c1  __TI_printfi                         
00000200  __STACK_SIZE                         
00000a91  IMU_AHRS_Update_Attitude             
00001031  main                                 
00001519  Turn_Poll                            
00001965  IMU_AHRS_Yaw_Calib_Poll              
00001d21  SYSCFG_DL_GPIO_init                  
00001ef9  atanf                                
000020c1  IRDM_update_wheel_speed              
0000226d  __aeabi_dsub                         
0000226d  __subdf3                             
00002277  __adddf3                             
00002277  __aeabi_dadd                         
000023ff  __aeabi_idiv0                        
00002401  IMU_AHRS_Update_Data                 
00002569  IMU_AHRS_Init_Poll                   
000026cd  IRDM_read_sensors                    
0000296d  mspm0_i2c_read                       
00002aa1  IRDM_UpdatePositionPID               
00002ced  OLED_ShowChar                        
00002e05  atan2f                               
00002f1d  OLED_Init                            
0000302d  __aeabi_ddiv                         
0000302d  __divdf3                             
00003139  DL_Timer_initFourCCPWMMode           
0000323d  DL_Timer_initTimerMode               
00003339  GROUP1_IRQHandler                    
00003435  SYSCFG_DL_SYSCTL_SYSPLL_init         
00003521  __aeabi_dmul                         
00003521  __muldf3                             
00003605  DL_SYSCTL_configSYSPLL               
000036e1  ldexp                                
000036e1  ldexpl                               
000036e1  scalbn                               
000036e1  scalbnl                              
000037b9  __aeabi_fsub                         
000037b9  __subsf3                             
000037c3  __addsf3                             
000037c3  __aeabi_fadd                         
00003891  TurnToAngle_Start                    
00003965  GoStraight_Poll                      
00003a31  SpeedPID_Update                      
00003bb9  mspm0_i2c_write                      
00003c7d  AnglePD_Update                       
00003d2d  __udivmoddi4                         
00003dcf  __aeabi_ldiv0                        
00003dd1  GoStraight_Start                     
00003e71  IMU_AHRS_Init_Start                  
00003f11  Mixer_Apply                          
00003fa9  OLED_WR_Byte                         
00004041  IRDM_calculate_bias                  
000040d5  SYSCFG_DL_PWM_0_init                 
00004165  SpeedPID_Init                        
000041f5  SYSCFG_DL_initPower                  
00004281  __aeabi_fmul                         
00004281  __mulsf3                             
00004415  __aeabi_fdiv                         
00004415  __divsf3                             
00004499  AO_Control                           
00004519  BO_Control                           
00004599  SYSCFG_DL_SYSCTL_init                
00004619  __TI_decompress_lzss                 
00004695  __gedf2                              
00004695  __gtdf2                              
00004709  IMU_AHRS_GetData                     
00004711  __aeabi_d2f                          
00004711  __truncdfsf2                         
00004785  OLED_ShowString                      
000047f5  OLED_Clear                           
00004861  __cmpdf2                             
00004861  __eqdf2                              
00004861  __ledf2                              
00004861  __ltdf2                              
00004861  __nedf2                              
00004931  AnglePD_Init                         
00004995  DL_SYSCTL_setHFCLKSourceHFXTParams   
000049f9  IMU_AHRS_Get_Yaw_Compensated         
00004a5d  SpeedLoop_Update                     
00004ac1  __aeabi_dcmpeq                       
00004ad5  __aeabi_dcmplt                       
00004ae9  __aeabi_dcmple                       
00004afd  __aeabi_dcmpge                       
00004b11  __aeabi_dcmpgt                       
00004b25  __aeabi_fcmpeq                       
00004b39  __aeabi_fcmplt                       
00004b4d  __aeabi_fcmple                       
00004b61  __aeabi_fcmpge                       
00004b75  __aeabi_fcmpgt                       
00004b89  mpu6050_i2c_sda_unlock               
00004be9  oled_i2c_sda_unlock                  
00004c49  DL_I2C_fillControllerTXFIFO          
00004ca9  SpeedLoop_Init                       
00004d05  frexp                                
00004d05  frexpl                               
00004e19  SYSCFG_DL_I2C_MPU6050_init           
00004e71  SYSCFG_DL_I2C_OLED_init              
00004ec9  __TI_ltoa                            
00004f79  __aeabi_idiv                         
00004f79  __aeabi_idivmod                      
00005209  GoStraight_GetCorrection             
00005259  IMU_AHRS_Yaw_Calib_Start             
000054c9  __aeabi_d2iz                         
000054c9  __fixdfsi                            
00005515  DL_UART_init                         
000055ed  lc_printf                            
0000567d  DL_SYSCTL_switchMCLKfromSYSOSCtoHSCLK
000056c1  IRDM_IsBlackLine                     
00005749  TurnByAngle_Start                    
0000578d  SYSCFG_DL_UART_0_init                
000057cd  __aeabi_uidiv                        
000057cd  __aeabi_uidivmod                     
0000580d  __aeabi_f2d                          
0000580d  __extendsfdf2                        
0000584d  atoi                                 
0000588d  vsnprintf                            
000058cd  DL_I2C_flushControllerTXFIFO         
00005945  OLED_Set_Pos                         
00005981  SYSCFG_DL_TIMER_0_init               
000059bd  TIMG0_IRQHandler                     
000059f9  __aeabi_i2f                          
000059f9  __floatsisf                          
00005a35  __gesf2                              
00005a35  __gtsf2                              
00005aad  __TI_auto_init_nobinit_nopinit       
00005ae9  __cmpsf2                             
00005ae9  __eqsf2                              
00005ae9  __lesf2                              
00005ae9  __ltsf2                              
00005ae9  __nesf2                              
00005b25  __muldsi3                            
00005b99  SYSCFG_DL_init                       
00005bd1  TB6612_Motor_Stop                    
00005c09  __aeabi_f2iz                         
00005c09  __fixsfsi                            
00005c41  sprintf                              
00005c79  __aeabi_f2uiz                        
00005c79  __fixunssfsi                         
00005cad  Motor_Init                           
00005d3d  mspm0_delay_ms                       
00005d6d  Motor_Get_Encoder                    
00005e1d  __aeabi_i2d                          
00005e1d  __floatsidf                          
00005e49  mspm0_get_clock_ms                   
00005f69  __aeabi_ui2f                         
00005f69  __floatunsisf                        
00005f91  _c_int00_noargs                      
00005fdf  DL_I2C_setClockConfig                
00006005  __aeabi_ui2d                         
00006005  __floatunsidf                        
00006029  __aeabi_lmul                         
00006029  __muldi3                             
00006071  memccpy                              
000060b5  IRDM_get_average_speed               
000060f5  __aeabi_llsl                         
000060f5  __ashldi3                            
00006249  DL_SYSCTL_configFCC                  
000062d5  DL_Timer_setCaptCompUpdateMethod     
000062f1  DL_Timer_setClockConfig              
0000630d  GoStraight_Stop                      
00006329  IMU_AHRS_Attitude_Enable             
00006345  Interrupt_Init                       
00006361  SYSCFG_DL_SYSCTL_CLK_init            
00006699  DL_Timer_setCaptureCompareOutCtl     
000066f9  IRDM_NeedTurnLeftFast                
00006711  IRDM_NeedTurnRightFast               
00006729  SysTick_Init                         
0000680b  SpeedPID_Reset                       
00006821  __TI_zero_init_nomemset              
00006915  Mixer_Init                           
00006929  Mixer_SetAngleDiff                   
0000693d  Mixer_SetFollowDiff                  
00006951  Mixer_SetSpeedDiff                   
00006965  __aeabi_uldivmod                     
0000698d  AnglePD_Reset                        
000069b1  DL_UART_setClockConfig               
000069c3  TI_memcpy_small                      
000069d5  __TI_decompress_none                 
00006a19  DL_Timer_setCaptureCompareValue      
00006a29  IRDM_GetCorrection                   
00006a39  SpeedLoop_GetCorrection              
00006a49  SysTick_Handler                      
00006a59  delay_ms                             
00006a69  wcslen                               
00006a79  __aeabi_memset                       
00006a79  __aeabi_memset4                      
00006a79  __aeabi_memset8                      
00006a95  TI_memset_small                      
00006abd  IMU_AHRS_GetStatus                   
00006ac9  IMU_AHRS_TurnAngle_Get               
00006ad5  IMU_AHRS_TurnAngle_Reset             
00006ae1  SYSCFG_DL_SYSTICK_init               
00006aed  Turn_GetCurrentError                 
00006af9  __aeabi_memclr                       
00006af9  __aeabi_memclr4                      
00006af9  __aeabi_memclr8                      
00006b05  DL_Common_delayCycles                
00006b3d  __aeabi_errno_addr                   
00006b45  __aeabi_memcpy                       
00006b45  __aeabi_memcpy4                      
00006b45  __aeabi_memcpy8                      
00006b65  abort                                
00006b6b  ADC0_IRQHandler                      
00006b6b  ADC1_IRQHandler                      
00006b6b  AES_IRQHandler                       
00006b6b  CANFD0_IRQHandler                    
00006b6b  DAC0_IRQHandler                      
00006b6b  DMA_IRQHandler                       
00006b6b  Default_Handler                      
00006b6b  GROUP0_IRQHandler                    
00006b6b  HardFault_Handler                    
00006b6b  I2C0_IRQHandler                      
00006b6b  I2C1_IRQHandler                      
00006b6b  NMI_Handler                          
00006b6b  PendSV_Handler                       
00006b6b  RTC_IRQHandler                       
00006b6b  SPI0_IRQHandler                      
00006b6b  SPI1_IRQHandler                      
00006b6b  SVC_Handler                          
00006b6b  TIMA0_IRQHandler                     
00006b6b  TIMA1_IRQHandler                     
00006b6b  TIMG12_IRQHandler                    
00006b6b  TIMG6_IRQHandler                     
00006b6b  TIMG7_IRQHandler                     
00006b6b  TIMG8_IRQHandler                     
00006b6b  UART0_IRQHandler                     
00006b6b  UART1_IRQHandler                     
00006b6b  UART2_IRQHandler                     
00006b6b  UART3_IRQHandler                     
00006b6e  C$$EXIT                              
00006b6f  HOSTexit                             
00006b89  Reset_Handler                        
00006b9d  _system_pre_init                     
00006ba0  asc2_1608                            
00007190  asc2_0806                            
000073c0  __aeabi_ctype_table_                 
000073c0  __aeabi_ctype_table_C                
00007790  __TI_Handler_Table_Base              
0000779c  __TI_Handler_Table_Limit             
000077a4  __TI_CINIT_Base                      
000077b4  __TI_CINIT_Limit                     
000077b4  __TI_CINIT_Warm                      
20200000  __start___llvm_prf_bits              
20200000  __start___llvm_prf_cnts              
20200000  __stop___llvm_prf_bits               
20200000  __stop___llvm_prf_cnts               
20200000  gPWM_0Backup                         
20200134  oled_buffer                          
202001b4  start_time                           
202001b8  tick_ms                              
2020022c  __aeabi_errno                        
202002aa  enable_group1_irq                    
202002ab  g_encoder_new_data                   
20207e00  __stack                              
20208000  __STACK_END                          
ffffffff  __TI_pprof_out_hndl                  
ffffffff  __TI_prof_data_size                  
ffffffff  __TI_prof_data_start                 
ffffffff  __binit__                            
ffffffff  binit                                
UNDEFED   __mpu_init                           
UNDEFED   _system_post_cinit                   

[272 symbols]
